target datalayout = "e-m:e-p270:32:32-p271:32:32-p272:64:64-i64:64-i128:128-f80:128-n8:16:32:64-S128"
target triple = "x86_64-pc-linux-gnu"

%struct.prio_queue = type { ptr, i64, ptr, i64, i64, ptr }
%struct.prio_queue_entry = type { i64, ptr }

; Function Attrs: inlinehint nounwind uwtable
define internal void @swap(ptr noundef %0, i64 noundef %1, i64 noundef %2) #3 {
  %4 = alloca ptr, align 8
  %5 = alloca i64, align 8
  %6 = alloca i64, align 8
  %7 = alloca ptr, align 8
  %8 = alloca ptr, align 8
  %9 = alloca [16 x i8], align 16
  store ptr %0, ptr %4, align 8, !tbaa !4
  store i64 %1, ptr %5, align 8, !tbaa !14
  store i64 %2, ptr %6, align 8, !tbaa !14
  br label %10

10:                                               ; preds = %3
  call void @llvm.lifetime.start.p0(i64 8, ptr %7) #7
  %11 = load ptr, ptr %4, align 8, !tbaa !4
  %12 = getelementptr inbounds nuw %struct.prio_queue, ptr %11, i32 0, i32 5
  %13 = load ptr, ptr %12, align 8, !tbaa !17
  %14 = load i64, ptr %5, align 8, !tbaa !14
  %15 = getelementptr inbounds nuw %struct.prio_queue_entry, ptr %13, i64 %14
  store ptr %15, ptr %7, align 8, !tbaa !18
  call void @llvm.lifetime.start.p0(i64 8, ptr %8) #7
  %16 = load ptr, ptr %4, align 8, !tbaa !4
  %17 = getelementptr inbounds nuw %struct.prio_queue, ptr %16, i32 0, i32 5
  %18 = load ptr, ptr %17, align 8, !tbaa !17
  %19 = load i64, ptr %6, align 8, !tbaa !14
  %20 = getelementptr inbounds nuw %struct.prio_queue_entry, ptr %18, i64 %19
  store ptr %20, ptr %8, align 8, !tbaa !18
  call void @llvm.lifetime.start.p0(i64 16, ptr %9) #7
  %21 = getelementptr inbounds [16 x i8], ptr %9, i64 0, i64 0
  %22 = load ptr, ptr %7, align 8, !tbaa !18
  call void @llvm.memcpy.p0.p0.i64(ptr align 16 %21, ptr align 1 %22, i64 16, i1 false)
  %23 = load ptr, ptr %7, align 8, !tbaa !18
  %24 = load ptr, ptr %8, align 8, !tbaa !18
  call void @llvm.memcpy.p0.p0.i64(ptr align 1 %23, ptr align 1 %24, i64 16, i1 false)
  %25 = load ptr, ptr %8, align 8, !tbaa !18
  %26 = getelementptr inbounds [16 x i8], ptr %9, i64 0, i64 0
  call void @llvm.memcpy.p0.p0.i64(ptr align 1 %25, ptr align 16 %26, i64 16, i1 false)
  call void @llvm.lifetime.end.p0(i64 16, ptr %9) #7
  call void @llvm.lifetime.end.p0(i64 8, ptr %8) #7
  call void @llvm.lifetime.end.p0(i64 8, ptr %7) #7
  br label %27

27:                                               ; preds = %10
  ret void
}

; Function Attrs: inlinehint nounwind uwtable
define internal i32 @compare(ptr noundef %0, i64 noundef %1, i64 noundef %2) #3 {
  %4 = alloca ptr, align 8
  %5 = alloca i64, align 8
  %6 = alloca i64, align 8
  %7 = alloca i32, align 4
  store ptr %0, ptr %4, align 8, !tbaa !4
  store i64 %1, ptr %5, align 8, !tbaa !14
  store i64 %2, ptr %6, align 8, !tbaa !14
  call void @llvm.lifetime.start.p0(i64 4, ptr %7) #7
  %8 = load ptr, ptr %4, align 8, !tbaa !4
  %9 = getelementptr inbounds nuw %struct.prio_queue, ptr %8, i32 0, i32 0
  %10 = load ptr, ptr %9, align 8, !tbaa !9
  %11 = load ptr, ptr %4, align 8, !tbaa !4
  %12 = getelementptr inbounds nuw %struct.prio_queue, ptr %11, i32 0, i32 5
  %13 = load ptr, ptr %12, align 8, !tbaa !17
  %14 = load i64, ptr %5, align 8, !tbaa !14
  %15 = getelementptr inbounds nuw %struct.prio_queue_entry, ptr %13, i64 %14
  %16 = getelementptr inbounds nuw %struct.prio_queue_entry, ptr %15, i32 0, i32 1
  %17 = load ptr, ptr %16, align 8, !tbaa !23
  %18 = load ptr, ptr %4, align 8, !tbaa !4
  %19 = getelementptr inbounds nuw %struct.prio_queue, ptr %18, i32 0, i32 5
  %20 = load ptr, ptr %19, align 8, !tbaa !17
  %21 = load i64, ptr %6, align 8, !tbaa !14
  %22 = getelementptr inbounds nuw %struct.prio_queue_entry, ptr %20, i64 %21
  %23 = getelementptr inbounds nuw %struct.prio_queue_entry, ptr %22, i32 0, i32 1
  %24 = load ptr, ptr %23, align 8, !tbaa !23
  %25 = load ptr, ptr %4, align 8, !tbaa !4
  %26 = getelementptr inbounds nuw %struct.prio_queue, ptr %25, i32 0, i32 2
  %27 = load ptr, ptr %26, align 8, !tbaa !25
  %28 = call i32 %10(ptr noundef %17, ptr noundef %24, ptr noundef %27)
  store i32 %28, ptr %7, align 4, !tbaa !26
  %29 = load i32, ptr %7, align 4, !tbaa !26
  %30 = icmp ne i32 %29, 0
  br i1 %30, label %65, label %31

31:                                               ; preds = %3
  %32 = load ptr, ptr %4, align 8, !tbaa !4
  %33 = getelementptr inbounds nuw %struct.prio_queue, ptr %32, i32 0, i32 5
  %34 = load ptr, ptr %33, align 8, !tbaa !17
  %35 = load i64, ptr %5, align 8, !tbaa !14
  %36 = getelementptr inbounds nuw %struct.prio_queue_entry, ptr %34, i64 %35
  %37 = getelementptr inbounds nuw %struct.prio_queue_entry, ptr %36, i32 0, i32 0
  %38 = load i64, ptr %37, align 8, !tbaa !21
  %39 = load ptr, ptr %4, align 8, !tbaa !4
  %40 = getelementptr inbounds nuw %struct.prio_queue, ptr %39, i32 0, i32 5
  %41 = load ptr, ptr %40, align 8, !tbaa !17
  %42 = load i64, ptr %6, align 8, !tbaa !14
  %43 = getelementptr inbounds nuw %struct.prio_queue_entry, ptr %41, i64 %42
  %44 = getelementptr inbounds nuw %struct.prio_queue_entry, ptr %43, i32 0, i32 0
  %45 = load i64, ptr %44, align 8, !tbaa !21
  %46 = icmp ugt i64 %38, %45
  %47 = zext i1 %46 to i32
  %48 = load ptr, ptr %4, align 8, !tbaa !4
  %49 = getelementptr inbounds nuw %struct.prio_queue, ptr %48, i32 0, i32 5
  %50 = load ptr, ptr %49, align 8, !tbaa !17
  %51 = load i64, ptr %5, align 8, !tbaa !14
  %52 = getelementptr inbounds nuw %struct.prio_queue_entry, ptr %50, i64 %51
  %53 = getelementptr inbounds nuw %struct.prio_queue_entry, ptr %52, i32 0, i32 0
  %54 = load i64, ptr %53, align 8, !tbaa !21
  %55 = load ptr, ptr %4, align 8, !tbaa !4
  %56 = getelementptr inbounds nuw %struct.prio_queue, ptr %55, i32 0, i32 5
  %57 = load ptr, ptr %56, align 8, !tbaa !17
  %58 = load i64, ptr %6, align 8, !tbaa !14
  %59 = getelementptr inbounds nuw %struct.prio_queue_entry, ptr %57, i64 %58
  %60 = getelementptr inbounds nuw %struct.prio_queue_entry, ptr %59, i32 0, i32 0
  %61 = load i64, ptr %60, align 8, !tbaa !21
  %62 = icmp ult i64 %54, %61
  %63 = zext i1 %62 to i32
  %64 = sub nsw i32 %47, %63
  store i32 %64, ptr %7, align 4, !tbaa !26
  br label %65

65:                                               ; preds = %31, %3
  %66 = load i32, ptr %7, align 4, !tbaa !26
  call void @llvm.lifetime.end.p0(i64 4, ptr %7) #7
  ret i32 %66
}

; Function Attrs: nounwind uwtable
define dso_local ptr @prio_queue_get(ptr noundef %0) #0 {
  %2 = alloca ptr, align 8
  %3 = alloca ptr, align 8
  %4 = alloca ptr, align 8
  %5 = alloca i64, align 8
  %6 = alloca i64, align 8
  %7 = alloca i32, align 4
  store ptr %0, ptr %3, align 8, !tbaa !4
  call void @llvm.lifetime.start.p0(i64 8, ptr %4) #7
  call void @llvm.lifetime.start.p0(i64 8, ptr %5) #7
  call void @llvm.lifetime.start.p0(i64 8, ptr %6) #7
  %8 = load ptr, ptr %3, align 8, !tbaa !4
  %9 = getelementptr inbounds nuw %struct.prio_queue, ptr %8, i32 0, i32 4
  %10 = load i64, ptr %9, align 8, !tbaa !13
  %11 = icmp ne i64 %10, 0
  br i1 %11, label %13, label %12

12:                                               ; preds = %1
  store ptr null, ptr %2, align 8
  store i32 1, ptr %7, align 4
  br label %98

13:                                               ; preds = %1
  %14 = load ptr, ptr %3, align 8, !tbaa !4
  %15 = getelementptr inbounds nuw %struct.prio_queue, ptr %14, i32 0, i32 0
  %16 = load ptr, ptr %15, align 8, !tbaa !9
  %17 = icmp ne ptr %16, null
  br i1 %17, label %29, label %18

18:                                               ; preds = %13
  %19 = load ptr, ptr %3, align 8, !tbaa !4
  %20 = getelementptr inbounds nuw %struct.prio_queue, ptr %19, i32 0, i32 5
  %21 = load ptr, ptr %20, align 8, !tbaa !17
  %22 = load ptr, ptr %3, align 8, !tbaa !4
  %23 = getelementptr inbounds nuw %struct.prio_queue, ptr %22, i32 0, i32 4
  %24 = load i64, ptr %23, align 8, !tbaa !13
  %25 = add i64 %24, -1
  store i64 %25, ptr %23, align 8, !tbaa !13
  %26 = getelementptr inbounds nuw %struct.prio_queue_entry, ptr %21, i64 %25
  %27 = getelementptr inbounds nuw %struct.prio_queue_entry, ptr %26, i32 0, i32 1
  %28 = load ptr, ptr %27, align 8, !tbaa !23
  store ptr %28, ptr %2, align 8
  store i32 1, ptr %7, align 4
  br label %98

29:                                               ; preds = %13
  %30 = load ptr, ptr %3, align 8, !tbaa !4
  %31 = getelementptr inbounds nuw %struct.prio_queue, ptr %30, i32 0, i32 5
  %32 = load ptr, ptr %31, align 8, !tbaa !17
  %33 = getelementptr inbounds %struct.prio_queue_entry, ptr %32, i64 0
  %34 = getelementptr inbounds nuw %struct.prio_queue_entry, ptr %33, i32 0, i32 1
  %35 = load ptr, ptr %34, align 8, !tbaa !23
  store ptr %35, ptr %4, align 8, !tbaa !18
  %36 = load ptr, ptr %3, align 8, !tbaa !4
  %37 = getelementptr inbounds nuw %struct.prio_queue, ptr %36, i32 0, i32 4
  %38 = load i64, ptr %37, align 8, !tbaa !13
  %39 = add i64 %38, -1
  store i64 %39, ptr %37, align 8, !tbaa !13
  %40 = icmp ne i64 %39, 0
  br i1 %40, label %43, label %41

41:                                               ; preds = %29
  %42 = load ptr, ptr %4, align 8, !tbaa !18
  store ptr %42, ptr %2, align 8
  store i32 1, ptr %7, align 4
  br label %98

43:                                               ; preds = %29
  %44 = load ptr, ptr %3, align 8, !tbaa !4
  %45 = getelementptr inbounds nuw %struct.prio_queue, ptr %44, i32 0, i32 5
  %46 = load ptr, ptr %45, align 8, !tbaa !17
  %47 = getelementptr inbounds %struct.prio_queue_entry, ptr %46, i64 0
  %48 = load ptr, ptr %3, align 8, !tbaa !4
  %49 = getelementptr inbounds nuw %struct.prio_queue, ptr %48, i32 0, i32 5
  %50 = load ptr, ptr %49, align 8, !tbaa !17
  %51 = load ptr, ptr %3, align 8, !tbaa !4
  %52 = getelementptr inbounds nuw %struct.prio_queue, ptr %51, i32 0, i32 4
  %53 = load i64, ptr %52, align 8, !tbaa !13
  %54 = getelementptr inbounds nuw %struct.prio_queue_entry, ptr %50, i64 %53
  call void @llvm.memcpy.p0.p0.i64(ptr align 8 %47, ptr align 8 %54, i64 16, i1 false), !tbaa.struct !28
  store i64 0, ptr %5, align 8, !tbaa !14
  br label %55

55:                                               ; preds = %94, %43
  %56 = load i64, ptr %5, align 8, !tbaa !14
  %57 = mul i64 %56, 2
  %58 = add i64 %57, 1
  %59 = load ptr, ptr %3, align 8, !tbaa !4
  %60 = getelementptr inbounds nuw %struct.prio_queue, ptr %59, i32 0, i32 4
  %61 = load i64, ptr %60, align 8, !tbaa !13
  %62 = icmp ult i64 %58, %61
  br i1 %62, label %63, label %96

63:                                               ; preds = %55
  %64 = load i64, ptr %5, align 8, !tbaa !14
  %65 = mul i64 %64, 2
  %66 = add i64 %65, 1
  store i64 %66, ptr %6, align 8, !tbaa !14
  %67 = load i64, ptr %6, align 8, !tbaa !14
  %68 = add i64 %67, 1
  %69 = load ptr, ptr %3, align 8, !tbaa !4
  %70 = getelementptr inbounds nuw %struct.prio_queue, ptr %69, i32 0, i32 4
  %71 = load i64, ptr %70, align 8, !tbaa !13
  %72 = icmp ult i64 %68, %71
  br i1 %72, label %73, label %83

73:                                               ; preds = %63
  %74 = load ptr, ptr %3, align 8, !tbaa !4
  %75 = load i64, ptr %6, align 8, !tbaa !14
  %76 = load i64, ptr %6, align 8, !tbaa !14
  %77 = add i64 %76, 1
  %78 = call i32 @compare(ptr noundef %74, i64 noundef %75, i64 noundef %77)
  %79 = icmp sge i32 %78, 0
  br i1 %79, label %80, label %83

80:                                               ; preds = %73
  %81 = load i64, ptr %6, align 8, !tbaa !14
  %82 = add i64 %81, 1
  store i64 %82, ptr %6, align 8, !tbaa !14
  br label %83

83:                                               ; preds = %80, %73, %63
  %84 = load ptr, ptr %3, align 8, !tbaa !4
  %85 = load i64, ptr %5, align 8, !tbaa !14
  %86 = load i64, ptr %6, align 8, !tbaa !14
  %87 = call i32 @compare(ptr noundef %84, i64 noundef %85, i64 noundef %86)
  %88 = icmp sle i32 %87, 0
  br i1 %88, label %89, label %90

89:                                               ; preds = %83
  br label %96

90:                                               ; preds = %83
  %91 = load ptr, ptr %3, align 8, !tbaa !4
  %92 = load i64, ptr %6, align 8, !tbaa !14
  %93 = load i64, ptr %5, align 8, !tbaa !14
  call void @swap(ptr noundef %91, i64 noundef %92, i64 noundef %93)
  br label %94

94:                                               ; preds = %90
  %95 = load i64, ptr %6, align 8, !tbaa !14
  store i64 %95, ptr %5, align 8, !tbaa !14
  br label %55, !llvm.loop !29

96:                                               ; preds = %89, %55
  %97 = load ptr, ptr %4, align 8, !tbaa !18
  store ptr %97, ptr %2, align 8
  store i32 1, ptr %7, align 4
  br label %98

98:                                               ; preds = %96, %41, %18, %12
  call void @llvm.lifetime.end.p0(i64 8, ptr %6) #7
  call void @llvm.lifetime.end.p0(i64 8, ptr %5) #7
  call void @llvm.lifetime.end.p0(i64 8, ptr %4) #7
  %99 = load ptr, ptr %2, align 8
  ret ptr %99
}