; Function Attrs: nounwind uwtable
define dso_local ptr @prio_queue_get(ptr noundef captures(none) %0) local_unnamed_addr #0 {
  %2 = alloca [16 x i8], align 16
  %3 = getelementptr inbounds nuw i8, ptr %0, i64 32
  %4 = load i64, ptr %3, align 8, !tbaa !11
  %.not = icmp eq i64 %4, 0
  br i1 %.not, label %.loopexit, label %5

5:                                                ; preds = %1
  %6 = load ptr, ptr %0, align 8, !tbaa !4
  %.not34 = icmp eq ptr %6, null
  %7 = getelementptr inbounds nuw i8, ptr %0, i64 40
  %8 = load ptr, ptr %7, align 8, !tbaa !12
  br i1 %.not34, label %9, label %13

9:                                                ; preds = %5
  %10 = add i64 %4, -1
  store i64 %10, ptr %3, align 8, !tbaa !11
  %11 = getelementptr inbounds nuw %struct.prio_queue_entry, ptr %8, i64 %10, i32 1
  %12 = load ptr, ptr %11, align 8, !tbaa !19
  br label %.loopexit

13:                                               ; preds = %5
  %14 = getelementptr inbounds nuw i8, ptr %8, i64 8
  %15 = load ptr, ptr %14, align 8, !tbaa !19
  %16 = add i64 %4, -1
  store i64 %16, ptr %3, align 8, !tbaa !11
  %.not35 = icmp eq i64 %16, 0
  br i1 %.not35, label %.loopexit, label %17

17:                                               ; preds = %13
  %18 = getelementptr inbounds nuw %struct.prio_queue_entry, ptr %8, i64 %16
  tail call void @llvm.memcpy.p0.p0.i64(ptr noundef nonnull align 8 dereferenceable(16) %8, ptr noundef nonnull align 8 dereferenceable(16) %18, i64 16, i1 false), !tbaa.struct !22
  %19 = load i64, ptr %3, align 8, !tbaa !11
  %20 = icmp ugt i64 %19, 1
  br i1 %20, label %.lr.ph, label %.loopexit

.lr.ph:                                           ; preds = %17
  %21 = getelementptr inbounds nuw i8, ptr %0, i64 16
  br label %22

22:                                               ; preds = %.lr.ph, %60
  %23 = phi i64 [ %19, %.lr.ph ], [ %65, %60 ]
  %24 = phi i64 [ 1, %.lr.ph ], [ %64, %60 ]
  %25 = phi i64 [ 0, %.lr.ph ], [ %63, %60 ]
  %.02739 = phi i64 [ 0, %.lr.ph ], [ %.0, %60 ]
  %26 = add nuw i64 %25, 2
  %27 = icmp ult i64 %26, %23
  %.pre40 = load ptr, ptr %7, align 8, !tbaa !12
  br i1 %27, label %28, label %43

28:                                               ; preds = %22
  %29 = load ptr, ptr %0, align 8, !tbaa !4
  %30 = getelementptr inbounds nuw %struct.prio_queue_entry, ptr %.pre40, i64 %24, i32 1
  %31 = load ptr, ptr %30, align 8, !tbaa !19
  %32 = getelementptr inbounds nuw %struct.prio_queue_entry, ptr %.pre40, i64 %26, i32 1
  %33 = load ptr, ptr %32, align 8, !tbaa !19
  %34 = load ptr, ptr %21, align 8, !tbaa !20
  %35 = tail call i32 %29(ptr noundef %31, ptr noundef %33, ptr noundef %34) #11
  %.not.i = icmp eq i32 %35, 0
  %.pre.pre = load ptr, ptr %7, align 8, !tbaa !12
  br i1 %.not.i, label %36, label %compare.exit

36:                                               ; preds = %28
  %37 = getelementptr inbounds nuw %struct.prio_queue_entry, ptr %.pre.pre, i64 %24
  %38 = load i64, ptr %37, align 8, !tbaa !17
  %39 = getelementptr inbounds nuw %struct.prio_queue_entry, ptr %.pre.pre, i64 %26
  %40 = load i64, ptr %39, align 8, !tbaa !17
  %41 = tail call i32 @llvm.ucmp.i32.i64(i64 %38, i64 %40)
  br label %compare.exit

compare.exit:                                     ; preds = %28, %36
  %.0.i = phi i32 [ %35, %28 ], [ %41, %36 ]
  %42 = icmp slt i32 %.0.i, 0
  %spec.select = select i1 %42, i64 %24, i64 %26
  br label %43

43:                                               ; preds = %compare.exit, %22
  %44 = phi ptr [ %.pre40, %22 ], [ %.pre.pre, %compare.exit ]
  %.0 = phi i64 [ %24, %22 ], [ %spec.select, %compare.exit ]
  %45 = load ptr, ptr %0, align 8, !tbaa !4
  %46 = getelementptr inbounds nuw %struct.prio_queue_entry, ptr %44, i64 %.02739, i32 1
  %47 = load ptr, ptr %46, align 8, !tbaa !19
  %48 = getelementptr inbounds nuw %struct.prio_queue_entry, ptr %44, i64 %.0, i32 1
  %49 = load ptr, ptr %48, align 8, !tbaa !19
  %50 = load ptr, ptr %21, align 8, !tbaa !20
  %51 = tail call i32 %45(ptr noundef %47, ptr noundef %49, ptr noundef %50) #11
  %.not.i36 = icmp eq i32 %51, 0
  br i1 %.not.i36, label %52, label %compare.exit38

52:                                               ; preds = %43
  %53 = load ptr, ptr %7, align 8, !tbaa !12
  %54 = getelementptr inbounds nuw %struct.prio_queue_entry, ptr %53, i64 %.02739
  %55 = load i64, ptr %54, align 8, !tbaa !17
  %56 = getelementptr inbounds nuw %struct.prio_queue_entry, ptr %53, i64 %.0
  %57 = load i64, ptr %56, align 8, !tbaa !17
  %58 = tail call i32 @llvm.ucmp.i32.i64(i64 %55, i64 %57)
  br label %compare.exit38

compare.exit38:                                   ; preds = %43, %52
  %.0.i37 = phi i32 [ %51, %43 ], [ %58, %52 ]
  %59 = icmp slt i32 %.0.i37, 1
  br i1 %59, label %.loopexit, label %60

60:                                               ; preds = %compare.exit38
  %.val = load ptr, ptr %7, align 8, !tbaa !12
  %61 = getelementptr inbounds nuw %struct.prio_queue_entry, ptr %.val, i64 %.0
  %62 = getelementptr inbounds nuw %struct.prio_queue_entry, ptr %.val, i64 %.02739
  call void @llvm.lifetime.start.p0(i64 16, ptr nonnull %2)
  call void @llvm.memcpy.p0.p0.i64(ptr noundef nonnull align 16 dereferenceable(16) %2, ptr noundef nonnull align 1 dereferenceable(16) %61, i64 16, i1 false)
  tail call void @llvm.memcpy.p0.p0.i64(ptr noundef nonnull align 1 dereferenceable(16) %61, ptr noundef nonnull align 1 dereferenceable(16) %62, i64 16, i1 false)
  call void @llvm.memcpy.p0.p0.i64(ptr noundef nonnull align 1 dereferenceable(16) %62, ptr noundef nonnull align 16 dereferenceable(16) %2, i64 16, i1 false)
  call void @llvm.lifetime.end.p0(i64 16, ptr nonnull %2)
  %63 = shl i64 %.0, 1
  %64 = or disjoint i64 %63, 1
  %65 = load i64, ptr %3, align 8, !tbaa !11
  %66 = icmp ult i64 %64, %65
  br i1 %66, label %22, label %.loopexit, !llvm.loop !25

.loopexit:                                        ; preds = %compare.exit38, %60, %17, %13, %1, %9
  %.028 = phi ptr [ %12, %9 ], [ null, %1 ], [ %15, %13 ], [ %15, %17 ], [ %15, %60 ], [ %15, %compare.exit38 ]
  ret ptr %.028
}